target datalayout = "e-m:e-p270:32:32-p271:32:32-p272:64:64-i64:64-i128:128-f80:128-n8:16:32:64-S128"
target triple = "x86_64-pc-linux-gnu"

%struct.cl_fmap = type { ptr, ptr, ptr, i64, i64, i64, i64, i8, i8, i8, i64, i64, i64, i64, ptr, ptr, ptr, ptr, ptr, ptr, ptr, i8, [16 x i8], i8, [20 x i8], i8, [32 x i8], ptr, ptr }

@.str = private unnamed_addr constant [9 x i8] c"EFI PART\00", align 1

; Function Attrs: nounwind uwtable
define internal ptr @fmap_need_off_once(ptr noundef %0, i64 noundef %1, i64 noundef %2) #0 {
  %4 = alloca ptr, align 8
  %5 = alloca i64, align 8
  %6 = alloca i64, align 8
  store ptr %0, ptr %4, align 8
  store i64 %1, ptr %5, align 8
  store i64 %2, ptr %6, align 8
  %7 = load ptr, ptr %4, align 8
  %8 = getelementptr inbounds %struct.cl_fmap, ptr %7, i32 0, i32 15
  %9 = load ptr, ptr %8, align 8
  %10 = load ptr, ptr %4, align 8
  %11 = load i64, ptr %5, align 8
  %12 = load i64, ptr %6, align 8
  %13 = call ptr %9(ptr noundef %10, i64 noundef %11, i64 noundef %12, i32 noundef 0)
  ret ptr %13
}

; Function Attrs: nounwind uwtable
define i64 @gpt_detect_size(ptr noundef %0) #0 {
  %2 = alloca i64, align 8
  %3 = alloca ptr, align 8
  %4 = alloca ptr, align 8
  store ptr %0, ptr %3, align 8
  %5 = load ptr, ptr %3, align 8
  %6 = call ptr @fmap_need_off_once(ptr noundef %5, i64 noundef 512, i64 noundef 8)
  store ptr %6, ptr %4, align 8
  %7 = load ptr, ptr %4, align 8
  %8 = icmp ne ptr %7, null
  br i1 %8, label %10, label %9

9:                                                ; preds = %1
  store i64 0, ptr %2, align 8
  br label %49

10:                                               ; preds = %1
  %11 = load ptr, ptr %4, align 8
  %12 = call i32 @strncmp(ptr noundef %11, ptr noundef @.str, i64 noundef 8) #5
  %13 = icmp eq i32 0, %12
  br i1 %13, label %14, label %15

14:                                               ; preds = %10
  store i64 512, ptr %2, align 8
  br label %49

15:                                               ; preds = %10
  %16 = load ptr, ptr %3, align 8
  %17 = call ptr @fmap_need_off_once(ptr noundef %16, i64 noundef 1024, i64 noundef 8)
  store ptr %17, ptr %4, align 8
  %18 = load ptr, ptr %4, align 8
  %19 = icmp ne ptr %18, null
  br i1 %19, label %21, label %20

20:                                               ; preds = %15
  store i64 0, ptr %2, align 8
  br label %49

21:                                               ; preds = %15
  %22 = load ptr, ptr %4, align 8
  %23 = call i32 @strncmp(ptr noundef %22, ptr noundef @.str, i64 noundef 8) #5
  %24 = icmp eq i32 0, %23
  br i1 %24, label %25, label %26

25:                                               ; preds = %21
  store i64 1024, ptr %2, align 8
  br label %49

26:                                               ; preds = %21
  %27 = load ptr, ptr %3, align 8
  %28 = call ptr @fmap_need_off_once(ptr noundef %27, i64 noundef 2048, i64 noundef 8)
  store ptr %28, ptr %4, align 8
  %29 = load ptr, ptr %4, align 8
  %30 = icmp ne ptr %29, null
  br i1 %30, label %32, label %31

31:                                               ; preds = %26
  store i64 0, ptr %2, align 8
  br label %49

32:                                               ; preds = %26
  %33 = load ptr, ptr %4, align 8
  %34 = call i32 @strncmp(ptr noundef %33, ptr noundef @.str, i64 noundef 8) #5
  %35 = icmp eq i32 0, %34
  br i1 %35, label %36, label %37

36:                                               ; preds = %32
  store i64 2048, ptr %2, align 8
  br label %49

37:                                               ; preds = %32
  %38 = load ptr, ptr %3, align 8
  %39 = call ptr @fmap_need_off_once(ptr noundef %38, i64 noundef 4096, i64 noundef 8)
  store ptr %39, ptr %4, align 8
  %40 = load ptr, ptr %4, align 8
  %41 = icmp ne ptr %40, null
  br i1 %41, label %43, label %42

42:                                               ; preds = %37
  store i64 0, ptr %2, align 8
  br label %49

43:                                               ; preds = %37
  %44 = load ptr, ptr %4, align 8
  %45 = call i32 @strncmp(ptr noundef %44, ptr noundef @.str, i64 noundef 8) #5
  %46 = icmp eq i32 0, %45
  br i1 %46, label %47, label %48

47:                                               ; preds = %43
  store i64 4096, ptr %2, align 8
  br label %49

48:                                               ; preds = %43
  store i64 0, ptr %2, align 8
  br label %49

49:                                               ; preds = %48, %47, %42, %36, %31, %25, %20, %14, %9
  %50 = load i64, ptr %2, align 8
  ret i64 %50
}