; Function Attrs: nounwind uwtable
define i64 @gpt_detect_size(ptr noundef %0) local_unnamed_addr #0 {
  %2 = getelementptr inbounds i8, ptr %0, i64 104
  %3 = load ptr, ptr %2, align 8
  %4 = tail call ptr %3(ptr noundef %0, i64 noundef 512, i64 noundef 8, i32 noundef 0) #7
  %.not = icmp eq ptr %4, null
  br i1 %.not, label %26, label %5

5:                                                ; preds = %1
  %6 = tail call i32 @strncmp(ptr noundef nonnull dereferenceable(1) %4, ptr noundef nonnull dereferenceable(9) @.str, i64 noundef 8) #8
  %7 = icmp eq i32 %6, 0
  br i1 %7, label %26, label %8

8:                                                ; preds = %5
  %9 = load ptr, ptr %2, align 8
  %10 = tail call ptr %9(ptr noundef nonnull %0, i64 noundef 1024, i64 noundef 8, i32 noundef 0) #7
  %.not16 = icmp eq ptr %10, null
  br i1 %.not16, label %26, label %11

11:                                               ; preds = %8
  %12 = tail call i32 @strncmp(ptr noundef nonnull dereferenceable(1) %10, ptr noundef nonnull dereferenceable(9) @.str, i64 noundef 8) #8
  %13 = icmp eq i32 %12, 0
  br i1 %13, label %26, label %14

14:                                               ; preds = %11
  %15 = load ptr, ptr %2, align 8
  %16 = tail call ptr %15(ptr noundef nonnull %0, i64 noundef 2048, i64 noundef 8, i32 noundef 0) #7
  %.not17 = icmp eq ptr %16, null
  br i1 %.not17, label %26, label %17

17:                                               ; preds = %14
  %18 = tail call i32 @strncmp(ptr noundef nonnull dereferenceable(1) %16, ptr noundef nonnull dereferenceable(9) @.str, i64 noundef 8) #8
  %19 = icmp eq i32 %18, 0
  br i1 %19, label %26, label %20

20:                                               ; preds = %17
  %21 = load ptr, ptr %2, align 8
  %22 = tail call ptr %21(ptr noundef nonnull %0, i64 noundef 4096, i64 noundef 8, i32 noundef 0) #7
  %.not18 = icmp eq ptr %22, null
  br i1 %.not18, label %26, label %23

23:                                               ; preds = %20
  %24 = tail call i32 @strncmp(ptr noundef nonnull dereferenceable(1) %22, ptr noundef nonnull dereferenceable(9) @.str, i64 noundef 8) #8
  %25 = icmp eq i32 %24, 0
  %. = select i1 %25, i64 4096, i64 0
  br label %26

26:                                               ; preds = %23, %20, %17, %14, %11, %8, %5, %1
  %.0 = phi i64 [ 0, %1 ], [ 512, %5 ], [ 0, %8 ], [ 1024, %11 ], [ 0, %14 ], [ 2048, %17 ], [ 0, %20 ], [ %., %23 ]
  ret i64 %.0
}